	.file	"programToCrack.c"
	.text
.Ltext0:
	.section	.rodata
.LC0:
	.string	"What is your name?"
.LC1:
	.string	"Hello, %s\n!"
	.text
	.globl	greet
	.type	greet, @function
greet:
.LFB2:
	.file 1 "programToCrack.c"
	.loc 1 11 0
	.cfi_startproc
	pushq	%rbp
	.cfi_def_cfa_offset 16
	.cfi_offset 6, -16
	movq	%rsp, %rbp
	.cfi_def_cfa_register 6
	subq	$288, %rsp
	movl	%edi, -276(%rbp)
	.loc 1 11 0
	movq	%fs:40, %rax
	movq	%rax, -8(%rbp)
	xorl	%eax, %eax
	.loc 1 13 0
	movl	$.LC0, %edi
	call	puts
	.loc 1 14 0
	movl	-276(%rbp), %eax
	movslq	%eax, %rdx
	leaq	-272(%rbp), %rax
	movq	%rax, %rsi
	movl	$0, %edi
	call	read
	.loc 1 15 0
	leaq	-272(%rbp), %rax
	movq	%rax, %rsi
	movl	$.LC1, %edi
	movl	$0, %eax
	call	printf
	.loc 1 16 0
	nop
	movq	-8(%rbp), %rax
	xorq	%fs:40, %rax
	je	.L2
	call	__stack_chk_fail
.L2:
	leave
	.cfi_def_cfa 7, 8
	ret
	.cfi_endproc
.LFE2:
	.size	greet, .-greet
	.globl	be_nice_to_people
	.type	be_nice_to_people, @function
be_nice_to_people:
.LFB3:
	.loc 1 18 0
	.cfi_startproc
	pushq	%rbp
	.cfi_def_cfa_offset 16
	.cfi_offset 6, -16
	movq	%rsp, %rbp
	.cfi_def_cfa_register 6
	subq	$16, %rsp
	.loc 1 19 0
	call	getegid
	movl	%eax, -4(%rbp)
	.loc 1 20 0
	movl	-4(%rbp), %edx
	movl	-4(%rbp), %ecx
	movl	-4(%rbp), %eax
	movl	%ecx, %esi
	movl	%eax, %edi
	movl	$0, %eax
	call	setresgid
	.loc 1 21 0
	nop
	leave
	.cfi_def_cfa 7, 8
	ret
	.cfi_endproc
.LFE3:
	.size	be_nice_to_people, .-be_nice_to_people
	.section	.rodata
.LC2:
	.string	"How long is your name?"
.LC3:
	.string	"%d"
.LC4:
	.string	"Length was too long!"
	.text
	.globl	main
	.type	main, @function
main:
.LFB4:
	.loc 1 23 0
	.cfi_startproc
	pushq	%rbp
	.cfi_def_cfa_offset 16
	.cfi_offset 6, -16
	movq	%rsp, %rbp
	.cfi_def_cfa_register 6
	subq	$32, %rsp
	movl	%edi, -20(%rbp)
	movq	%rsi, -32(%rbp)
	.loc 1 23 0
	movq	%fs:40, %rax
	movq	%rax, -8(%rbp)
	xorl	%eax, %eax
	.loc 1 25 0
	movl	$0, %eax
	call	be_nice_to_people
	.loc 1 27 0
	movl	$.LC2, %edi
	call	puts
	.loc 1 28 0
	leaq	-12(%rbp), %rax
	movq	%rax, %rsi
	movl	$.LC3, %edi
	movl	$0, %eax
	call	__isoc99_scanf
	.loc 1 30 0
	movl	-12(%rbp), %eax
	cmpl	$255, %eax
	jg	.L5
	.loc 1 31 0
	movl	-12(%rbp), %eax
	movl	%eax, %edi
	call	greet
	jmp	.L6
.L5:
	.loc 1 33 0
	movl	$.LC4, %edi
	call	puts
.L6:
	movl	$0, %eax
	.loc 1 34 0
	movq	-8(%rbp), %rdx
	xorq	%fs:40, %rdx
	je	.L8
	call	__stack_chk_fail
.L8:
	leave
	.cfi_def_cfa 7, 8
	ret
	.cfi_endproc
.LFE4:
	.size	main, .-main
.Letext0:
	.file 2 "/usr/include/x86_64-linux-gnu/bits/types.h"
	.file 3 "/usr/include/x86_64-linux-gnu/sys/types.h"
	.section	.note.GNU-stack,"",@progbits
